target datalayout = "e-m:e-p270:32:32-p271:32:32-p272:64:64-i64:64-i128:128-f80:128-n8:16:32:64-S128"
target triple = "x86_64-pc-linux-gnu"

%"class.std::__1::strstreambuf" = type { %"class.std::__1::basic_streambuf", i32, i64, ptr, ptr }
%"class.std::__1::basic_streambuf" = type { ptr, %"class.std::__1::locale", ptr, ptr, ptr, ptr, ptr, ptr }
%"class.std::__1::locale" = type { ptr }

; Function Attrs: inlinehint mustprogress nounwind uwtable
define available_externally void @_ZNSt3__115basic_streambufIcNS_11char_traitsIcEEE5gbumpEi(ptr noundef nonnull align 8 dereferenceable(64) %0, i32 noundef %1) #3 align 2 {
  %3 = alloca ptr, align 8
  %4 = alloca i32, align 4
  store ptr %0, ptr %3, align 8, !tbaa !23
  store i32 %1, ptr %4, align 4, !tbaa !35
  %5 = load ptr, ptr %3, align 8
  %6 = load i32, ptr %4, align 4, !tbaa !35
  %7 = getelementptr inbounds nuw %"class.std::__1::basic_streambuf", ptr %5, i32 0, i32 3
  %8 = load ptr, ptr %7, align 8, !tbaa !26
  %9 = sext i32 %6 to i64
  %10 = getelementptr inbounds i8, ptr %8, i64 %9
  store ptr %10, ptr %7, align 8, !tbaa !26
  ret void
}

; Function Attrs: mustprogress nounwind uwtable
define linkonce_odr hidden noundef ptr @_ZNKSt3__115basic_streambufIcNS_11char_traitsIcEEE4gptrB8ne210000Ev(ptr noundef nonnull align 8 dereferenceable(64) %0) #1 comdat align 2 {
  %2 = alloca ptr, align 8
  store ptr %0, ptr %2, align 8, !tbaa !23
  %3 = load ptr, ptr %2, align 8
  %4 = getelementptr inbounds nuw %"class.std::__1::basic_streambuf", ptr %3, i32 0, i32 3
  %5 = load ptr, ptr %4, align 8, !tbaa !26
  ret ptr %5
}

; Function Attrs: mustprogress nounwind uwtable
define linkonce_odr hidden noundef ptr @_ZNKSt3__115basic_streambufIcNS_11char_traitsIcEEE5ebackB8ne210000Ev(ptr noundef nonnull align 8 dereferenceable(64) %0) #1 comdat align 2 {
  %2 = alloca ptr, align 8
  store ptr %0, ptr %2, align 8, !tbaa !23
  %3 = load ptr, ptr %2, align 8
  %4 = getelementptr inbounds nuw %"class.std::__1::basic_streambuf", ptr %3, i32 0, i32 2
  %5 = load ptr, ptr %4, align 8, !tbaa !25
  ret ptr %5
}

; Function Attrs: mustprogress uwtable
define dso_local noundef i32 @_ZNSt3__112strstreambuf9pbackfailEi(ptr noundef nonnull align 8 dereferenceable(96) %0, i32 noundef %1) unnamed_addr #0 align 2 {
  %3 = alloca i32, align 4
  %4 = alloca ptr, align 8
  %5 = alloca i32, align 4
  store ptr %0, ptr %4, align 8, !tbaa !4
  store i32 %1, ptr %5, align 4, !tbaa !35
  %6 = load ptr, ptr %4, align 8
  %7 = call noundef ptr @_ZNKSt3__115basic_streambufIcNS_11char_traitsIcEEE5ebackB8ne210000Ev(ptr noundef nonnull align 8 dereferenceable(64) %6)
  %8 = call noundef ptr @_ZNKSt3__115basic_streambufIcNS_11char_traitsIcEEE4gptrB8ne210000Ev(ptr noundef nonnull align 8 dereferenceable(64) %6)
  %9 = icmp eq ptr %7, %8
  br i1 %9, label %10, label %11

10:                                               ; preds = %2
  store i32 -1, ptr %3, align 4
  br label %37

11:                                               ; preds = %2
  %12 = load i32, ptr %5, align 4, !tbaa !35
  %13 = icmp eq i32 %12, -1
  br i1 %13, label %14, label %15

14:                                               ; preds = %11
  call void @_ZNSt3__115basic_streambufIcNS_11char_traitsIcEEE5gbumpEi(ptr noundef nonnull align 8 dereferenceable(64) %6, i32 noundef -1)
  store i32 0, ptr %3, align 4
  br label %37

15:                                               ; preds = %11
  %16 = getelementptr inbounds nuw %"class.std::__1::strstreambuf", ptr %6, i32 0, i32 1
  %17 = load i32, ptr %16, align 8, !tbaa !13
  %18 = and i32 %17, 2
  %19 = icmp ne i32 %18, 0
  br i1 %19, label %20, label %32

20:                                               ; preds = %15
  %21 = call noundef ptr @_ZNKSt3__115basic_streambufIcNS_11char_traitsIcEEE4gptrB8ne210000Ev(ptr noundef nonnull align 8 dereferenceable(64) %6)
  %22 = getelementptr inbounds i8, ptr %21, i64 -1
  %23 = load i8, ptr %22, align 1, !tbaa !44
  %24 = sext i8 %23 to i32
  %25 = load i32, ptr %5, align 4, !tbaa !35
  %26 = trunc i32 %25 to i8
  %27 = sext i8 %26 to i32
  %28 = icmp eq i32 %24, %27
  br i1 %28, label %29, label %31

29:                                               ; preds = %20
  call void @_ZNSt3__115basic_streambufIcNS_11char_traitsIcEEE5gbumpEi(ptr noundef nonnull align 8 dereferenceable(64) %6, i32 noundef -1)
  %30 = load i32, ptr %5, align 4, !tbaa !35
  store i32 %30, ptr %3, align 4
  br label %37

31:                                               ; preds = %20
  store i32 -1, ptr %3, align 4
  br label %37

32:                                               ; preds = %15
  call void @_ZNSt3__115basic_streambufIcNS_11char_traitsIcEEE5gbumpEi(ptr noundef nonnull align 8 dereferenceable(64) %6, i32 noundef -1)
  %33 = load i32, ptr %5, align 4, !tbaa !35
  %34 = trunc i32 %33 to i8
  %35 = call noundef ptr @_ZNKSt3__115basic_streambufIcNS_11char_traitsIcEEE4gptrB8ne210000Ev(ptr noundef nonnull align 8 dereferenceable(64) %6)
  store i8 %34, ptr %35, align 1, !tbaa !44
  %36 = load i32, ptr %5, align 4, !tbaa !35
  store i32 %36, ptr %3, align 4
  br label %37

37:                                               ; preds = %32, %31, %29, %14, %10
  %38 = load i32, ptr %3, align 4
  ret i32 %38
}