; Function Attrs: mustprogress nofree norecurse nosync nounwind willreturn memory(readwrite, inaccessiblemem: none) uwtable
define dso_local noundef i32 @_ZNSt3__112strstreambuf9pbackfailEi(ptr noundef nonnull align 8 captures(none) dereferenceable(96) %0, i32 noundef %1) unnamed_addr #12 align 2 {
  %3 = getelementptr inbounds nuw i8, ptr %0, i64 16
  %4 = load ptr, ptr %3, align 8, !tbaa !23
  %5 = getelementptr inbounds nuw i8, ptr %0, i64 24
  %6 = load ptr, ptr %5, align 8, !tbaa !24
  %7 = icmp eq ptr %4, %6
  br i1 %7, label %25, label %8

8:                                                ; preds = %2
  %9 = icmp eq i32 %1, -1
  br i1 %9, label %10, label %12

10:                                               ; preds = %8
  %11 = getelementptr inbounds i8, ptr %6, i64 -1
  store ptr %11, ptr %5, align 8, !tbaa !24
  br label %25

12:                                               ; preds = %8
  %13 = getelementptr inbounds nuw i8, ptr %0, i64 64
  %14 = load i32, ptr %13, align 8, !tbaa !7
  %15 = and i32 %14, 2
  %.not = icmp eq i32 %15, 0
  %16 = getelementptr inbounds i8, ptr %6, i64 -1
  br i1 %.not, label %23, label %17

17:                                               ; preds = %12
  %18 = load i8, ptr %16, align 1, !tbaa !30
  %19 = sext i8 %18 to i32
  %sext = shl i32 %1, 24
  %20 = ashr exact i32 %sext, 24
  %21 = icmp eq i32 %20, %19
  br i1 %21, label %22, label %25

22:                                               ; preds = %17
  store ptr %16, ptr %5, align 8, !tbaa !24
  br label %25

23:                                               ; preds = %12
  store ptr %16, ptr %5, align 8, !tbaa !24
  %24 = trunc i32 %1 to i8
  store i8 %24, ptr %16, align 1, !tbaa !30
  br label %25

25:                                               ; preds = %17, %2, %23, %22, %10
  %.0 = phi i32 [ 0, %10 ], [ %1, %22 ], [ %1, %23 ], [ -1, %2 ], [ -1, %17 ]
  ret i32 %.0
}